; Function Attrs: mustprogress nounwind uwtable
define void @jsonnet_json_destroy(ptr nocapture noundef readnone %0, ptr noundef %1) local_unnamed_addr #3 personality ptr @__gxx_personality_v0 {
  %3 = icmp eq ptr %1, null
  br i1 %3, label %19, label %4

4:                                                ; preds = %2
  %5 = getelementptr inbounds i8, ptr %1, i64 72
  %6 = getelementptr inbounds i8, ptr %1, i64 88
  %7 = load ptr, ptr %6, align 8
  invoke void @_ZNSt8_Rb_treeINSt7__cxx1112basic_stringIcSt11char_traitsIcESaIcEEESt4pairIKS5_St10unique_ptrI16JsonnetJsonValueSt14default_deleteIS9_EEESt10_Select1stISD_ESt4lessIS5_ESaISD_EE8_M_eraseEPSt13_Rb_tree_nodeISD_E(ptr noundef nonnull align 8 dereferenceable(48) %5, ptr noundef %7)
          to label %_ZNSt8_Rb_treeINSt7__cxx1112basic_stringIcSt11char_traitsIcESaIcEEESt4pairIKS5_St10unique_ptrI16JsonnetJsonValueSt14default_deleteIS9_EEESt10_Select1stISD_ESt4lessIS5_ESaISD_EED2Ev.exit.i unwind label %8

8:                                                ; preds = %4
  %9 = landingpad { ptr, i32 }
          catch ptr null
  %10 = extractvalue { ptr, i32 } %9, 0
  tail call void @__clang_call_terminate(ptr %10) #29
  unreachable

_ZNSt8_Rb_treeINSt7__cxx1112basic_stringIcSt11char_traitsIcESaIcEEESt4pairIKS5_St10unique_ptrI16JsonnetJsonValueSt14default_deleteIS9_EEESt10_Select1stISD_ESt4lessIS5_ESaISD_EED2Ev.exit.i: ; preds = %4
  %11 = getelementptr inbounds i8, ptr %1, i64 48
  %12 = load ptr, ptr %11, align 8
  %13 = getelementptr inbounds i8, ptr %1, i64 56
  %14 = load ptr, ptr %13, align 8
  %.not.i2.i.i = icmp eq ptr %12, %14
  br i1 %.not.i2.i.i, label %_ZNSt6vectorISt10unique_ptrI16JsonnetJsonValueSt14default_deleteIS1_EESaIS4_EED2Ev.exit.i, label %.lr.ph.i.i

.lr.ph.i.i:                                       ; preds = %_ZNSt8_Rb_treeINSt7__cxx1112basic_stringIcSt11char_traitsIcESaIcEEESt4pairIKS5_St10unique_ptrI16JsonnetJsonValueSt14default_deleteIS9_EEESt10_Select1stISD_ESt4lessIS5_ESaISD_EED2Ev.exit.i, %.lr.ph.i.i
  %.0.i3.i.i = phi ptr [ %15, %.lr.ph.i.i ], [ %12, %_ZNSt8_Rb_treeINSt7__cxx1112basic_stringIcSt11char_traitsIcESaIcEEESt4pairIKS5_St10unique_ptrI16JsonnetJsonValueSt14default_deleteIS9_EEESt10_Select1stISD_ESt4lessIS5_ESaISD_EED2Ev.exit.i ]
  tail call void @_ZNSt10unique_ptrI16JsonnetJsonValueSt14default_deleteIS0_EED2Ev(ptr noundef nonnull align 8 dereferenceable(8) %.0.i3.i.i) #30
  %15 = getelementptr inbounds i8, ptr %.0.i3.i.i, i64 8
  %.not.i.i.i = icmp eq ptr %15, %14
  br i1 %.not.i.i.i, label %_ZNSt6vectorISt10unique_ptrI16JsonnetJsonValueSt14default_deleteIS1_EESaIS4_EED2Ev.exitthread-pre-split.i, label %.lr.ph.i.i, !llvm.loop !9

_ZNSt6vectorISt10unique_ptrI16JsonnetJsonValueSt14default_deleteIS1_EESaIS4_EED2Ev.exitthread-pre-split.i: ; preds = %.lr.ph.i.i
  %.pr.i = load ptr, ptr %11, align 8
  br label %_ZNSt6vectorISt10unique_ptrI16JsonnetJsonValueSt14default_deleteIS1_EESaIS4_EED2Ev.exit.i

_ZNSt6vectorISt10unique_ptrI16JsonnetJsonValueSt14default_deleteIS1_EESaIS4_EED2Ev.exit.i: ; preds = %_ZNSt6vectorISt10unique_ptrI16JsonnetJsonValueSt14default_deleteIS1_EESaIS4_EED2Ev.exitthread-pre-split.i, %_ZNSt8_Rb_treeINSt7__cxx1112basic_stringIcSt11char_traitsIcESaIcEEESt4pairIKS5_St10unique_ptrI16JsonnetJsonValueSt14default_deleteIS9_EEESt10_Select1stISD_ESt4lessIS5_ESaISD_EED2Ev.exit.i
  %16 = phi ptr [ %.pr.i, %_ZNSt6vectorISt10unique_ptrI16JsonnetJsonValueSt14default_deleteIS1_EESaIS4_EED2Ev.exitthread-pre-split.i ], [ %12, %_ZNSt8_Rb_treeINSt7__cxx1112basic_stringIcSt11char_traitsIcESaIcEEESt4pairIKS5_St10unique_ptrI16JsonnetJsonValueSt14default_deleteIS9_EEESt10_Select1stISD_ESt4lessIS5_ESaISD_EED2Ev.exit.i ]
  %.not.i.i1.i = icmp eq ptr %16, null
  br i1 %.not.i.i1.i, label %_ZN16JsonnetJsonValueD2Ev.exit, label %17

17:                                               ; preds = %_ZNSt6vectorISt10unique_ptrI16JsonnetJsonValueSt14default_deleteIS1_EESaIS4_EED2Ev.exit.i
  tail call void @_ZdlPv(ptr noundef nonnull %16) #33
  br label %_ZN16JsonnetJsonValueD2Ev.exit

_ZN16JsonnetJsonValueD2Ev.exit:                   ; preds = %_ZNSt6vectorISt10unique_ptrI16JsonnetJsonValueSt14default_deleteIS1_EESaIS4_EED2Ev.exit.i, %17
  %18 = getelementptr inbounds i8, ptr %1, i64 8
  tail call void @_ZNSt7__cxx1112basic_stringIcSt11char_traitsIcESaIcEED1Ev(ptr noundef nonnull align 8 dereferenceable(32) %18) #30
  tail call void @_ZdlPv(ptr noundef nonnull %1) #33
  br label %19

19:                                               ; preds = %_ZN16JsonnetJsonValueD2Ev.exit, %2
  ret void
}